; Function Attrs: nounwind uwtable
define range(i32 -1, 1) i32 @scram_ServerKey(ptr noundef %0, i32 noundef %1, i32 noundef %2, ptr noundef %3, ptr noundef writeonly captures(none) %4) local_unnamed_addr #0 {
  %6 = tail call ptr @pg_hmac_create(i32 noundef %1) #8
  %7 = icmp eq ptr %6, null
  br i1 %7, label %8, label %10

8:                                                ; preds = %5
  %9 = tail call ptr @pg_hmac_error(ptr noundef null) #8
  store ptr %9, ptr %4, align 8
  br label %23

10:                                               ; preds = %5
  %11 = sext i32 %2 to i64
  %12 = tail call i32 @pg_hmac_init(ptr noundef nonnull %6, ptr noundef %0, i64 noundef %11) #8
  %13 = icmp slt i32 %12, 0
  br i1 %13, label %20, label %14

14:                                               ; preds = %10
  %15 = tail call i32 @pg_hmac_update(ptr noundef nonnull %6, ptr noundef nonnull @.str.1, i64 noundef 10) #8
  %16 = icmp slt i32 %15, 0
  br i1 %16, label %20, label %17

17:                                               ; preds = %14
  %18 = tail call i32 @pg_hmac_final(ptr noundef nonnull %6, ptr noundef %3, i64 noundef %11) #8
  %19 = icmp slt i32 %18, 0
  br i1 %19, label %20, label %22

20:                                               ; preds = %17, %14, %10
  %21 = tail call ptr @pg_hmac_error(ptr noundef nonnull %6) #8
  store ptr %21, ptr %4, align 8
  tail call void @pg_hmac_free(ptr noundef nonnull %6) #8
  br label %23

22:                                               ; preds = %17
  tail call void @pg_hmac_free(ptr noundef nonnull %6) #8
  br label %23

23:                                               ; preds = %22, %20, %8
  %.0 = phi i32 [ -1, %8 ], [ -1, %20 ], [ 0, %22 ]
  ret i32 %.0
}